target datalayout = "e-m:e-p270:32:32-p271:32:32-p272:64:64-i64:64-i128:128-f80:128-n8:16:32:64-S128"
target triple = "x86_64-pc-linux-gnu"

%struct.timeval = type { i64, i64 }

@trace_events_enabled_count = external global i32, align 4
@message_with_timestamp = external global i8, align 1
@qemu_loglevel = external global i32, align 4
@.str.19 = private unnamed_addr constant [8 x i8] c"unknown\00", align 1
@_TRACE_FW_CFG_ADD_I16_DSTATE = external global i16, align 2
@.str.50 = private unnamed_addr constant [57 x i8] c"%d@%zu.%06zu:fw_cfg_add_i16 key 0x%04x '%s', value 0x%x\0A\00", align 1
@.str.51 = private unnamed_addr constant [44 x i8] c"fw_cfg_add_i16 key 0x%04x '%s', value 0x%x\0A\00", align 1

; Function Attrs: inlinehint nounwind sspstrong uwtable
define internal zeroext i1 @qemu_loglevel_mask(i32 noundef %0) #2 {
  %2 = alloca i32, align 4
  store i32 %0, ptr %2, align 4
  %3 = load i32, ptr @qemu_loglevel, align 4
  %4 = load i32, ptr %2, align 4
  %5 = and i32 %3, %4
  %6 = icmp ne i32 %5, 0
  ret i1 %6
}

; Function Attrs: inlinehint nounwind sspstrong uwtable
define internal void @_nocheck__trace_fw_cfg_add_i16(i16 noundef zeroext %0, ptr noundef %1, i16 noundef zeroext %2) #2 {
  %4 = alloca i16, align 2
  %5 = alloca ptr, align 8
  %6 = alloca i16, align 2
  %7 = alloca %struct.timeval, align 8
  store i16 %0, ptr %4, align 2
  store ptr %1, ptr %5, align 8
  store i16 %2, ptr %6, align 2
  %8 = load i32, ptr @trace_events_enabled_count, align 4
  %9 = icmp ne i32 %8, 0
  %10 = xor i1 %9, true
  %11 = xor i1 %10, true
  %12 = zext i1 %11 to i32
  %13 = sext i32 %12 to i64
  %14 = call i64 @llvm.expect.i64(i64 %13, i64 0)
  %15 = icmp ne i64 %14, 0
  br i1 %15, label %16, label %44

16:                                               ; preds = %3
  %17 = load i16, ptr @_TRACE_FW_CFG_ADD_I16_DSTATE, align 2
  %18 = zext i16 %17 to i32
  %19 = icmp ne i32 %18, 0
  br i1 %19, label %20, label %44

20:                                               ; preds = %16
  %21 = call zeroext i1 @qemu_loglevel_mask(i32 noundef 32768)
  br i1 %21, label %22, label %44

22:                                               ; preds = %20
  %23 = load i8, ptr @message_with_timestamp, align 1, !range !4, !noundef !5
  %24 = trunc i8 %23 to i1
  br i1 %24, label %25, label %37

25:                                               ; preds = %22
  call void @llvm.lifetime.start.p0(i64 16, ptr %7) #18
  call void @llvm.memset.p0.i64(ptr align 8 %7, i8 0, i64 16, i1 false), !annotation !6
  %26 = call i32 @gettimeofday(ptr noundef %7, ptr noundef null) #18
  %27 = call i32 @qemu_get_thread_id()
  %28 = getelementptr inbounds nuw %struct.timeval, ptr %7, i32 0, i32 0
  %29 = load i64, ptr %28, align 8
  %30 = getelementptr inbounds nuw %struct.timeval, ptr %7, i32 0, i32 1
  %31 = load i64, ptr %30, align 8
  %32 = load i16, ptr %4, align 2
  %33 = zext i16 %32 to i32
  %34 = load ptr, ptr %5, align 8
  %35 = load i16, ptr %6, align 2
  %36 = zext i16 %35 to i32
  call void (ptr, ...) @qemu_log(ptr noundef @.str.50, i32 noundef %27, i64 noundef %29, i64 noundef %31, i32 noundef %33, ptr noundef %34, i32 noundef %36)
  call void @llvm.lifetime.end.p0(i64 16, ptr %7) #18
  br label %43

37:                                               ; preds = %22
  %38 = load i16, ptr %4, align 2
  %39 = zext i16 %38 to i32
  %40 = load ptr, ptr %5, align 8
  %41 = load i16, ptr %6, align 2
  %42 = zext i16 %41 to i32
  call void (ptr, ...) @qemu_log(ptr noundef @.str.51, i32 noundef %39, ptr noundef %40, i32 noundef %42)
  br label %43

43:                                               ; preds = %37, %25
  br label %44

44:                                               ; preds = %43, %20, %16, %3
  ret void
}

; Function Attrs: nounwind sspstrong uwtable
define internal ptr @key_name(i16 noundef zeroext %0) #0 {
  %2 = alloca ptr, align 8
  %3 = alloca i16, align 2
  store i16 %0, ptr %3, align 2
  %4 = load i16, ptr %3, align 2
  %5 = zext i16 %4 to i32
  %6 = and i32 %5, 32768
  %7 = icmp ne i32 %6, 0
  br i1 %7, label %8, label %11

8:                                                ; preds = %1
  %9 = load i16, ptr %3, align 2
  %10 = call ptr @fw_cfg_arch_key_name(i16 noundef zeroext %9)
  store ptr %10, ptr %2, align 8
  br label %21

11:                                               ; preds = %1
  %12 = load i16, ptr %3, align 2
  %13 = zext i16 %12 to i32
  %14 = icmp slt i32 %13, 32
  br i1 %14, label %15, label %20

15:                                               ; preds = %11
  %16 = load i16, ptr %3, align 2
  %17 = zext i16 %16 to i64
  %18 = getelementptr inbounds nuw [32 x ptr], ptr @key_name.fw_cfg_wellknown_keys, i64 0, i64 %17
  %19 = load ptr, ptr %18, align 8
  store ptr %19, ptr %2, align 8
  br label %21

20:                                               ; preds = %11
  store ptr null, ptr %2, align 8
  br label %21

21:                                               ; preds = %20, %15, %8
  %22 = load ptr, ptr %2, align 8
  ret ptr %22
}

; Function Attrs: inlinehint nounwind sspstrong uwtable
define internal void @trace_fw_cfg_add_i16(i16 noundef zeroext %0, ptr noundef %1, i16 noundef zeroext %2) #2 {
  %4 = alloca i16, align 2
  %5 = alloca ptr, align 8
  %6 = alloca i16, align 2
  store i16 %0, ptr %4, align 2
  store ptr %1, ptr %5, align 8
  store i16 %2, ptr %6, align 2
  %7 = load i16, ptr %4, align 2
  %8 = load ptr, ptr %5, align 8
  %9 = load i16, ptr %6, align 2
  call void @_nocheck__trace_fw_cfg_add_i16(i16 noundef zeroext %7, ptr noundef %8, i16 noundef zeroext %9)
  ret void
}

; Function Attrs: inlinehint nounwind sspstrong uwtable
define internal ptr @trace_key_name(i16 noundef zeroext %0) #2 {
  %2 = alloca i16, align 2
  %3 = alloca ptr, align 8
  store i16 %0, ptr %2, align 2
  call void @llvm.lifetime.start.p0(i64 8, ptr %3) #18
  %4 = load i16, ptr %2, align 2
  %5 = call ptr @key_name(i16 noundef zeroext %4)
  store ptr %5, ptr %3, align 8
  %6 = load ptr, ptr %3, align 8
  %7 = icmp ne ptr %6, null
  br i1 %7, label %8, label %10

8:                                                ; preds = %1
  %9 = load ptr, ptr %3, align 8
  br label %11

10:                                               ; preds = %1
  br label %11

11:                                               ; preds = %10, %8
  %12 = phi ptr [ %9, %8 ], [ @.str.19, %10 ]
  call void @llvm.lifetime.end.p0(i64 8, ptr %3) #18
  ret ptr %12
}

; Function Attrs: inlinehint nounwind sspstrong uwtable
define internal zeroext i16 @cpu_to_le16(i16 noundef zeroext %0) #2 {
  %2 = alloca i16, align 2
  store i16 %0, ptr %2, align 2
  %3 = load i16, ptr %2, align 2
  ret i16 %3
}

; Function Attrs: nounwind sspstrong uwtable
define dso_local void @fw_cfg_add_i16(ptr noundef %0, i16 noundef zeroext %1, i16 noundef zeroext %2) #0 {
  %4 = alloca ptr, align 8
  %5 = alloca i16, align 2
  %6 = alloca i16, align 2
  %7 = alloca ptr, align 8
  store ptr %0, ptr %4, align 8
  store i16 %1, ptr %5, align 2
  store i16 %2, ptr %6, align 2
  call void @llvm.lifetime.start.p0(i64 8, ptr %7) #18
  store ptr null, ptr %7, align 8, !annotation !6
  %8 = call noalias ptr @g_malloc(i64 noundef 2) #22
  store ptr %8, ptr %7, align 8
  %9 = load i16, ptr %6, align 2
  %10 = call zeroext i16 @cpu_to_le16(i16 noundef zeroext %9)
  %11 = load ptr, ptr %7, align 8
  store i16 %10, ptr %11, align 2
  %12 = load i16, ptr %5, align 2
  %13 = load i16, ptr %5, align 2
  %14 = call ptr @trace_key_name(i16 noundef zeroext %13)
  %15 = load i16, ptr %6, align 2
  call void @trace_fw_cfg_add_i16(i16 noundef zeroext %12, ptr noundef %14, i16 noundef zeroext %15)
  %16 = load ptr, ptr %4, align 8
  %17 = load i16, ptr %5, align 2
  %18 = load ptr, ptr %7, align 8
  call void @fw_cfg_add_bytes(ptr noundef %16, i16 noundef zeroext %17, ptr noundef %18, i64 noundef 2)
  call void @llvm.lifetime.end.p0(i64 8, ptr %7) #18
  ret void
}