; Function Attrs: nounwind sspstrong uwtable
define dso_local void @fw_cfg_add_i16(ptr noundef readonly captures(none) %0, i16 noundef zeroext %1, i16 noundef zeroext %2) local_unnamed_addr #2 {
  %4 = alloca %struct.timeval, align 8
  %5 = tail call noalias dereferenceable_or_null(2) ptr @g_malloc(i64 noundef 2) #22
  store i16 %2, ptr %5, align 2
  %.not.i.i = icmp sgt i16 %1, -1
  br i1 %.not.i.i, label %8, label %6

6:                                                ; preds = %3
  %7 = tail call ptr @fw_cfg_arch_key_name(i16 noundef zeroext %1) #18
  br label %trace_key_name.exit

8:                                                ; preds = %3
  %9 = icmp samesign ult i16 %1, 32
  br i1 %9, label %10, label %trace_key_name.exit

10:                                               ; preds = %8
  %11 = zext nneg i16 %1 to i64
  %12 = getelementptr inbounds nuw [32 x ptr], ptr @key_name.fw_cfg_wellknown_keys, i64 0, i64 %11
  %13 = load ptr, ptr %12, align 8
  br label %trace_key_name.exit

trace_key_name.exit:                              ; preds = %6, %8, %10
  %.0.i.i = phi ptr [ %7, %6 ], [ %13, %10 ], [ null, %8 ]
  %.not.i = icmp eq ptr %.0.i.i, null
  %14 = select i1 %.not.i, ptr @.str.19, ptr %.0.i.i
  %15 = load i32, ptr @trace_events_enabled_count, align 4
  %.not.i.i7 = icmp eq i32 %15, 0
  br i1 %.not.i.i7, label %trace_fw_cfg_add_i16.exit, label %16, !prof !6

16:                                               ; preds = %trace_key_name.exit
  %17 = load i16, ptr @_TRACE_FW_CFG_ADD_I16_DSTATE, align 2
  %.not5.i.i = icmp eq i16 %17, 0
  br i1 %.not5.i.i, label %trace_fw_cfg_add_i16.exit, label %18

18:                                               ; preds = %16
  %19 = load i32, ptr @qemu_loglevel, align 4
  %20 = and i32 %19, 32768
  %.not6.i.i = icmp eq i32 %20, 0
  br i1 %.not6.i.i, label %trace_fw_cfg_add_i16.exit, label %21

21:                                               ; preds = %18
  %22 = load i8, ptr @message_with_timestamp, align 1, !range !4, !noundef !5
  %23 = trunc nuw i8 %22 to i1
  br i1 %23, label %24, label %32

24:                                               ; preds = %21
  call void @llvm.lifetime.start.p0(i64 16, ptr nonnull %4) #18
  call void @llvm.memset.p0.i64(ptr noundef nonnull align 8 dereferenceable(16) %4, i8 0, i64 16, i1 false), !annotation !7
  %25 = call i32 @gettimeofday(ptr noundef nonnull %4, ptr noundef null) #18
  %26 = tail call i32 @qemu_get_thread_id() #18
  %27 = load i64, ptr %4, align 8
  %28 = getelementptr inbounds nuw i8, ptr %4, i64 8
  %29 = load i64, ptr %28, align 8
  %30 = zext i16 %1 to i32
  %31 = zext i16 %2 to i32
  tail call void (ptr, ...) @qemu_log(ptr noundef nonnull @.str.50, i32 noundef %26, i64 noundef %27, i64 noundef %29, i32 noundef %30, ptr noundef nonnull %14, i32 noundef %31) #18
  call void @llvm.lifetime.end.p0(i64 16, ptr nonnull %4) #18
  br label %trace_fw_cfg_add_i16.exit

32:                                               ; preds = %21
  %33 = zext i16 %1 to i32
  %34 = zext i16 %2 to i32
  tail call void (ptr, ...) @qemu_log(ptr noundef nonnull @.str.51, i32 noundef %33, ptr noundef nonnull %14, i32 noundef %34) #18
  br label %trace_fw_cfg_add_i16.exit

trace_fw_cfg_add_i16.exit:                        ; preds = %trace_key_name.exit, %16, %18, %24, %32
  tail call void @fw_cfg_add_bytes(ptr noundef %0, i16 noundef zeroext %1, ptr noundef nonnull %5, i64 noundef 2)
  ret void
}